; Function Attrs: mustprogress uwtable
define void @_ZN3gmx26FreeEnergyPerturbationData13updateMDAtomsEv(ptr noundef nonnull readonly align 8 captures(none) dereferenceable(64) %0) local_unnamed_addr #0 align 2 {
  %2 = getelementptr inbounds nuw i8, ptr %0, i64 56
  %3 = load ptr, ptr %2, align 8, !tbaa !35
  %4 = load ptr, ptr %3, align 8, !tbaa !47
  %5 = getelementptr inbounds nuw i8, ptr %0, i64 12
  %6 = load float, ptr %5, align 4, !tbaa !49
  tail call void @_Z14update_mdatomsP9t_mdatomsf(ptr noundef %4, float noundef %6)
  ret void
}